target datalayout = "e-m:e-p270:32:32-p271:32:32-p272:64:64-i64:64-i128:128-f80:128-n8:16:32:64-S128"
target triple = "x86_64-pc-linux-gnu"

%struct.AVProbeData = type { ptr, ptr, i32, ptr }

; Function Attrs: nounwind uwtable
define internal i32 @roq_probe(ptr noundef %0) #0 {
  %2 = alloca i32, align 4
  %3 = alloca ptr, align 8
  store ptr %0, ptr %3, align 8, !tbaa !4
  %4 = load ptr, ptr %3, align 8, !tbaa !4
  %5 = getelementptr inbounds nuw %struct.AVProbeData, ptr %4, i32 0, i32 1
  %6 = load ptr, ptr %5, align 8, !tbaa !9
  %7 = getelementptr inbounds i8, ptr %6, i64 0
  %8 = load i16, ptr %7, align 1, !tbaa !13
  %9 = zext i16 %8 to i32
  %10 = icmp ne i32 %9, 4228
  br i1 %10, label %18, label %11

11:                                               ; preds = %1
  %12 = load ptr, ptr %3, align 8, !tbaa !4
  %13 = getelementptr inbounds nuw %struct.AVProbeData, ptr %12, i32 0, i32 1
  %14 = load ptr, ptr %13, align 8, !tbaa !9
  %15 = getelementptr inbounds i8, ptr %14, i64 2
  %16 = load i32, ptr %15, align 1, !tbaa !13
  %17 = icmp ne i32 %16, -1
  br i1 %17, label %18, label %19

18:                                               ; preds = %11, %1
  store i32 0, ptr %2, align 4
  br label %20

19:                                               ; preds = %11
  store i32 100, ptr %2, align 4
  br label %20

20:                                               ; preds = %19, %18
  %21 = load i32, ptr %2, align 4
  ret i32 %21
}