; Function Attrs: mustprogress nofree norecurse nosync nounwind willreturn memory(read, inaccessiblemem: none) uwtable
define internal range(i32 0, 101) i32 @roq_probe(ptr noundef readonly captures(none) %0) #0 {
  %2 = getelementptr inbounds nuw i8, ptr %0, i64 8
  %3 = load ptr, ptr %2, align 8, !tbaa !4
  %4 = load i16, ptr %3, align 1, !tbaa !11
  %.not = icmp eq i16 %4, 4228
  br i1 %.not, label %5, label %8

5:                                                ; preds = %1
  %6 = getelementptr inbounds nuw i8, ptr %3, i64 2
  %7 = load i32, ptr %6, align 1, !tbaa !11
  %.not2 = icmp eq i32 %7, -1
  %spec.select = select i1 %.not2, i32 100, i32 0
  br label %8

8:                                                ; preds = %5, %1
  %.0 = phi i32 [ 0, %1 ], [ %spec.select, %5 ]
  ret i32 %.0
}